target datalayout = "e-m:e-p270:32:32-p271:32:32-p272:64:64-i64:64-i128:128-f80:128-n8:16:32:64-S128"
target triple = "x86_64-pc-linux-gnu"

%struct.SN_env = type { ptr, i32, i32, i32, i32, i32, ptr, ptr }

@s_62 = internal constant [4 x i8] c"\CE\B9\CE\B4", align 1
@s_63 = internal constant [4 x i8] c"\CE\B9\CE\B4", align 1

; Function Attrs: nounwind uwtable
define internal i32 @r_steps9(ptr noundef %0) #0 {
  %2 = alloca i32, align 4
  %3 = alloca ptr, align 8
  %4 = alloca i32, align 4
  %5 = alloca i32, align 4
  %6 = alloca i32, align 4
  %7 = alloca i32, align 4
  %8 = alloca i32, align 4
  store ptr %0, ptr %3, align 8
  %9 = load ptr, ptr %3, align 8
  %10 = getelementptr inbounds nuw %struct.SN_env, ptr %9, i32 0, i32 1
  %11 = load i32, ptr %10, align 8
  %12 = load ptr, ptr %3, align 8
  %13 = getelementptr inbounds nuw %struct.SN_env, ptr %12, i32 0, i32 5
  store i32 %11, ptr %13, align 8
  %14 = load ptr, ptr %3, align 8
  %15 = getelementptr inbounds nuw %struct.SN_env, ptr %14, i32 0, i32 1
  %16 = load i32, ptr %15, align 8
  %17 = sub i32 %16, 7
  %18 = load ptr, ptr %3, align 8
  %19 = getelementptr inbounds nuw %struct.SN_env, ptr %18, i32 0, i32 3
  %20 = load i32, ptr %19, align 8
  %21 = icmp sle i32 %17, %20
  br i1 %21, label %52, label %22

22:                                               ; preds = %1
  %23 = load ptr, ptr %3, align 8
  %24 = getelementptr inbounds nuw %struct.SN_env, ptr %23, i32 0, i32 0
  %25 = load ptr, ptr %24, align 8
  %26 = load ptr, ptr %3, align 8
  %27 = getelementptr inbounds nuw %struct.SN_env, ptr %26, i32 0, i32 1
  %28 = load i32, ptr %27, align 8
  %29 = sub i32 %28, 1
  %30 = sext i32 %29 to i64
  %31 = getelementptr inbounds i8, ptr %25, i64 %30
  %32 = load i8, ptr %31, align 1
  %33 = zext i8 %32 to i32
  %34 = ashr i32 %33, 5
  %35 = icmp ne i32 %34, 5
  br i1 %35, label %52, label %36

36:                                               ; preds = %22
  %37 = load ptr, ptr %3, align 8
  %38 = getelementptr inbounds nuw %struct.SN_env, ptr %37, i32 0, i32 0
  %39 = load ptr, ptr %38, align 8
  %40 = load ptr, ptr %3, align 8
  %41 = getelementptr inbounds nuw %struct.SN_env, ptr %40, i32 0, i32 1
  %42 = load i32, ptr %41, align 8
  %43 = sub i32 %42, 1
  %44 = sext i32 %43 to i64
  %45 = getelementptr inbounds i8, ptr %39, i64 %44
  %46 = load i8, ptr %45, align 1
  %47 = zext i8 %46 to i32
  %48 = and i32 %47, 31
  %49 = ashr i32 -1610481664, %48
  %50 = and i32 %49, 1
  %51 = icmp ne i32 %50, 0
  br i1 %51, label %53, label %52

52:                                               ; preds = %36, %22, %1
  store i32 0, ptr %2, align 4
  br label %192

53:                                               ; preds = %36
  %54 = load ptr, ptr %3, align 8
  %55 = call i32 @find_among_b(ptr noundef %54, ptr noundef @a_21, i32 noundef 3)
  %56 = icmp ne i32 %55, 0
  br i1 %56, label %58, label %57

57:                                               ; preds = %53
  store i32 0, ptr %2, align 4
  br label %192

58:                                               ; preds = %53
  %59 = load ptr, ptr %3, align 8
  %60 = getelementptr inbounds nuw %struct.SN_env, ptr %59, i32 0, i32 1
  %61 = load i32, ptr %60, align 8
  %62 = load ptr, ptr %3, align 8
  %63 = getelementptr inbounds nuw %struct.SN_env, ptr %62, i32 0, i32 4
  store i32 %61, ptr %63, align 4
  call void @llvm.lifetime.start.p0(i64 4, ptr %4) #3
  %64 = load ptr, ptr %3, align 8
  %65 = call i32 @slice_del(ptr noundef %64)
  store i32 %65, ptr %4, align 4
  %66 = load i32, ptr %4, align 4
  %67 = icmp slt i32 %66, 0
  br i1 %67, label %68, label %70

68:                                               ; preds = %58
  %69 = load i32, ptr %4, align 4
  store i32 %69, ptr %2, align 4
  store i32 1, ptr %5, align 4
  br label %71

70:                                               ; preds = %58
  store i32 0, ptr %5, align 4
  br label %71

71:                                               ; preds = %70, %68
  call void @llvm.lifetime.end.p0(i64 4, ptr %4) #3
  %72 = load i32, ptr %5, align 4
  switch i32 %72, label %194 [
    i32 0, label %73
    i32 1, label %192
  ]

73:                                               ; preds = %71
  %74 = load ptr, ptr %3, align 8
  %75 = getelementptr inbounds nuw %struct.SN_env, ptr %74, i32 0, i32 7
  %76 = load ptr, ptr %75, align 8
  %77 = getelementptr inbounds i32, ptr %76, i64 0
  store i32 0, ptr %77, align 4
  call void @llvm.lifetime.start.p0(i64 4, ptr %6) #3
  %78 = load ptr, ptr %3, align 8
  %79 = getelementptr inbounds nuw %struct.SN_env, ptr %78, i32 0, i32 2
  %80 = load i32, ptr %79, align 4
  %81 = load ptr, ptr %3, align 8
  %82 = getelementptr inbounds nuw %struct.SN_env, ptr %81, i32 0, i32 1
  %83 = load i32, ptr %82, align 8
  %84 = sub i32 %80, %83
  store i32 %84, ptr %6, align 4
  %85 = load ptr, ptr %3, align 8
  %86 = getelementptr inbounds nuw %struct.SN_env, ptr %85, i32 0, i32 1
  %87 = load i32, ptr %86, align 8
  %88 = load ptr, ptr %3, align 8
  %89 = getelementptr inbounds nuw %struct.SN_env, ptr %88, i32 0, i32 5
  store i32 %87, ptr %89, align 8
  %90 = load ptr, ptr %3, align 8
  %91 = getelementptr inbounds nuw %struct.SN_env, ptr %90, i32 0, i32 1
  %92 = load i32, ptr %91, align 8
  %93 = load ptr, ptr %3, align 8
  %94 = getelementptr inbounds nuw %struct.SN_env, ptr %93, i32 0, i32 4
  store i32 %92, ptr %94, align 4
  %95 = load ptr, ptr %3, align 8
  %96 = call i32 @find_among_b(ptr noundef %95, ptr noundef @a_19, i32 noundef 4)
  %97 = icmp ne i32 %96, 0
  br i1 %97, label %99, label %98

98:                                               ; preds = %73
  br label %119

99:                                               ; preds = %73
  %100 = load ptr, ptr %3, align 8
  %101 = getelementptr inbounds nuw %struct.SN_env, ptr %100, i32 0, i32 1
  %102 = load i32, ptr %101, align 8
  %103 = load ptr, ptr %3, align 8
  %104 = getelementptr inbounds nuw %struct.SN_env, ptr %103, i32 0, i32 3
  %105 = load i32, ptr %104, align 8
  %106 = icmp sgt i32 %102, %105
  br i1 %106, label %107, label %108

107:                                              ; preds = %99
  br label %119

108:                                              ; preds = %99
  call void @llvm.lifetime.start.p0(i64 4, ptr %7) #3
  %109 = load ptr, ptr %3, align 8
  %110 = call i32 @slice_from_s(ptr noundef %109, i32 noundef 4, ptr noundef @s_62)
  store i32 %110, ptr %7, align 4
  %111 = load i32, ptr %7, align 4
  %112 = icmp slt i32 %111, 0
  br i1 %112, label %113, label %115

113:                                              ; preds = %108
  %114 = load i32, ptr %7, align 4
  store i32 %114, ptr %2, align 4
  store i32 1, ptr %5, align 4
  br label %116

115:                                              ; preds = %108
  store i32 0, ptr %5, align 4
  br label %116

116:                                              ; preds = %115, %113
  call void @llvm.lifetime.end.p0(i64 4, ptr %7) #3
  %117 = load i32, ptr %5, align 4
  switch i32 %117, label %188 [
    i32 0, label %118
  ]

118:                                              ; preds = %116
  store i32 3, ptr %5, align 4
  br label %188

119:                                              ; preds = %107, %98
  %120 = load ptr, ptr %3, align 8
  %121 = getelementptr inbounds nuw %struct.SN_env, ptr %120, i32 0, i32 2
  %122 = load i32, ptr %121, align 4
  %123 = load i32, ptr %6, align 4
  %124 = sub i32 %122, %123
  %125 = load ptr, ptr %3, align 8
  %126 = getelementptr inbounds nuw %struct.SN_env, ptr %125, i32 0, i32 1
  store i32 %124, ptr %126, align 8
  %127 = load ptr, ptr %3, align 8
  %128 = getelementptr inbounds nuw %struct.SN_env, ptr %127, i32 0, i32 1
  %129 = load i32, ptr %128, align 8
  %130 = load ptr, ptr %3, align 8
  %131 = getelementptr inbounds nuw %struct.SN_env, ptr %130, i32 0, i32 5
  store i32 %129, ptr %131, align 8
  %132 = load ptr, ptr %3, align 8
  %133 = getelementptr inbounds nuw %struct.SN_env, ptr %132, i32 0, i32 1
  %134 = load i32, ptr %133, align 8
  %135 = load ptr, ptr %3, align 8
  %136 = getelementptr inbounds nuw %struct.SN_env, ptr %135, i32 0, i32 4
  store i32 %134, ptr %136, align 4
  %137 = load ptr, ptr %3, align 8
  %138 = getelementptr inbounds nuw %struct.SN_env, ptr %137, i32 0, i32 1
  %139 = load i32, ptr %138, align 8
  %140 = sub i32 %139, 1
  %141 = load ptr, ptr %3, align 8
  %142 = getelementptr inbounds nuw %struct.SN_env, ptr %141, i32 0, i32 3
  %143 = load i32, ptr %142, align 8
  %144 = icmp sle i32 %140, %143
  br i1 %144, label %171, label %145

145:                                              ; preds = %119
  %146 = load ptr, ptr %3, align 8
  %147 = getelementptr inbounds nuw %struct.SN_env, ptr %146, i32 0, i32 0
  %148 = load ptr, ptr %147, align 8
  %149 = load ptr, ptr %3, align 8
  %150 = getelementptr inbounds nuw %struct.SN_env, ptr %149, i32 0, i32 1
  %151 = load i32, ptr %150, align 8
  %152 = sub i32 %151, 1
  %153 = sext i32 %152 to i64
  %154 = getelementptr inbounds i8, ptr %148, i64 %153
  %155 = load i8, ptr %154, align 1
  %156 = zext i8 %155 to i32
  %157 = icmp ne i32 %156, 181
  br i1 %157, label %158, label %172

158:                                              ; preds = %145
  %159 = load ptr, ptr %3, align 8
  %160 = getelementptr inbounds nuw %struct.SN_env, ptr %159, i32 0, i32 0
  %161 = load ptr, ptr %160, align 8
  %162 = load ptr, ptr %3, align 8
  %163 = getelementptr inbounds nuw %struct.SN_env, ptr %162, i32 0, i32 1
  %164 = load i32, ptr %163, align 8
  %165 = sub i32 %164, 1
  %166 = sext i32 %165 to i64
  %167 = getelementptr inbounds i8, ptr %161, i64 %166
  %168 = load i8, ptr %167, align 1
  %169 = zext i8 %168 to i32
  %170 = icmp ne i32 %169, 189
  br i1 %170, label %171, label %172

171:                                              ; preds = %158, %119
  store i32 0, ptr %2, align 4
  store i32 1, ptr %5, align 4
  br label %188

172:                                              ; preds = %158, %145
  %173 = load ptr, ptr %3, align 8
  %174 = call i32 @find_among_b(ptr noundef %173, ptr noundef @a_20, i32 noundef 2)
  %175 = icmp ne i32 %174, 0
  br i1 %175, label %177, label %176

176:                                              ; preds = %172
  store i32 0, ptr %2, align 4
  store i32 1, ptr %5, align 4
  br label %188

177:                                              ; preds = %172
  call void @llvm.lifetime.start.p0(i64 4, ptr %8) #3
  %178 = load ptr, ptr %3, align 8
  %179 = call i32 @slice_from_s(ptr noundef %178, i32 noundef 4, ptr noundef @s_63)
  store i32 %179, ptr %8, align 4
  %180 = load i32, ptr %8, align 4
  %181 = icmp slt i32 %180, 0
  br i1 %181, label %182, label %184

182:                                              ; preds = %177
  %183 = load i32, ptr %8, align 4
  store i32 %183, ptr %2, align 4
  store i32 1, ptr %5, align 4
  br label %185

184:                                              ; preds = %177
  store i32 0, ptr %5, align 4
  br label %185

185:                                              ; preds = %184, %182
  call void @llvm.lifetime.end.p0(i64 4, ptr %8) #3
  %186 = load i32, ptr %5, align 4
  switch i32 %186, label %188 [
    i32 0, label %187
  ]

187:                                              ; preds = %185
  store i32 0, ptr %5, align 4
  br label %188

188:                                              ; preds = %118, %187, %185, %176, %171, %116
  call void @llvm.lifetime.end.p0(i64 4, ptr %6) #3
  %189 = load i32, ptr %5, align 4
  switch i32 %189, label %194 [
    i32 0, label %190
    i32 1, label %192
    i32 3, label %191
  ]

190:                                              ; preds = %188
  br label %191

191:                                              ; preds = %190, %188
  store i32 1, ptr %2, align 4
  br label %192

192:                                              ; preds = %191, %188, %71, %57, %52
  %193 = load i32, ptr %2, align 4
  ret i32 %193

194:                                              ; preds = %188, %71
  unreachable
}