; Function Attrs: nounwind uwtable
define internal fastcc i32 @r_steps9(ptr noundef initializes((24, 28)) %0) unnamed_addr #0 {
  %2 = getelementptr inbounds nuw i8, ptr %0, i64 8
  %3 = load i32, ptr %2, align 8
  %4 = getelementptr inbounds nuw i8, ptr %0, i64 24
  store i32 %3, ptr %4, align 8
  %5 = add i32 %3, -7
  %6 = getelementptr inbounds nuw i8, ptr %0, i64 16
  %7 = load i32, ptr %6, align 8
  %.not = icmp sgt i32 %5, %7
  br i1 %.not, label %8, label %.thread75

8:                                                ; preds = %1
  %9 = load ptr, ptr %0, align 8
  %10 = add i32 %3, -1
  %11 = sext i32 %10 to i64
  %12 = getelementptr inbounds i8, ptr %9, i64 %11
  %13 = load i8, ptr %12, align 1
  %14 = zext i8 %13 to i32
  %.mask = and i32 %14, 224
  %.not58 = icmp eq i32 %.mask, 160
  br i1 %.not58, label %15, label %.thread75

15:                                               ; preds = %8
  %16 = and i32 %14, 31
  %17 = shl nuw i32 1, %16
  %18 = and i32 %17, -1610481664
  %.not59 = icmp eq i32 %18, 0
  br i1 %.not59, label %.thread75, label %19

19:                                               ; preds = %15
  %20 = tail call i32 @find_among_b(ptr noundef nonnull %0, ptr noundef nonnull @a_21, i32 noundef 3) #2
  %.not60 = icmp eq i32 %20, 0
  br i1 %.not60, label %.thread75, label %21

21:                                               ; preds = %19
  %22 = load i32, ptr %2, align 8
  %23 = getelementptr inbounds nuw i8, ptr %0, i64 20
  store i32 %22, ptr %23, align 4
  %24 = tail call i32 @slice_del(ptr noundef nonnull %0) #2
  %25 = icmp sgt i32 %24, -1
  br i1 %25, label %26, label %.thread75

26:                                               ; preds = %21
  %27 = getelementptr inbounds nuw i8, ptr %0, i64 40
  %28 = load ptr, ptr %27, align 8
  store i32 0, ptr %28, align 4
  %29 = getelementptr inbounds nuw i8, ptr %0, i64 12
  %30 = load i32, ptr %29, align 4
  %31 = load i32, ptr %2, align 8
  %.neg = sub i32 %31, %30
  store i32 %31, ptr %4, align 8
  store i32 %31, ptr %23, align 4
  %32 = tail call i32 @find_among_b(ptr noundef nonnull %0, ptr noundef nonnull @a_19, i32 noundef 4) #2
  %.not61 = icmp eq i32 %32, 0
  %.pre = load i32, ptr %6, align 8
  br i1 %.not61, label %39, label %33

33:                                               ; preds = %26
  %34 = load i32, ptr %2, align 8
  %35 = icmp sgt i32 %34, %.pre
  br i1 %35, label %39, label %36

36:                                               ; preds = %33
  %37 = tail call i32 @slice_from_s(ptr noundef nonnull %0, i32 noundef 4, ptr noundef nonnull @s_62) #2
  %38 = icmp sgt i32 %37, -1
  %spec.select = select i1 %38, i32 1, i32 %37
  br label %.thread75

39:                                               ; preds = %33, %26
  %40 = load i32, ptr %29, align 4
  %41 = add i32 %40, %.neg
  store i32 %41, ptr %2, align 8
  store i32 %41, ptr %4, align 8
  store i32 %41, ptr %23, align 4
  %42 = add i32 %41, -1
  %.not62 = icmp sgt i32 %42, %.pre
  br i1 %.not62, label %43, label %.thread75

43:                                               ; preds = %39
  %44 = load ptr, ptr %0, align 8
  %45 = sext i32 %42 to i64
  %46 = getelementptr inbounds i8, ptr %44, i64 %45
  %47 = load i8, ptr %46, align 1
  switch i8 %47, label %.thread75 [
    i8 -75, label %48
    i8 -67, label %48
  ]

48:                                               ; preds = %43, %43
  %49 = tail call i32 @find_among_b(ptr noundef nonnull %0, ptr noundef nonnull @a_20, i32 noundef 2) #2
  %.not65 = icmp eq i32 %49, 0
  br i1 %.not65, label %.thread75, label %50

50:                                               ; preds = %48
  %51 = tail call i32 @slice_from_s(ptr noundef nonnull %0, i32 noundef 4, ptr noundef nonnull @s_63) #2
  %.fr = freeze i32 %51
  %switch = icmp slt i32 %.fr, 0
  %spec.select80 = select i1 %switch, i32 %.fr, i32 1
  br label %.thread75

.thread75:                                        ; preds = %50, %36, %48, %39, %43, %21, %19, %1, %8, %15
  %.0 = phi i32 [ %24, %21 ], [ 0, %15 ], [ 0, %8 ], [ 0, %1 ], [ 0, %19 ], [ 0, %48 ], [ 0, %39 ], [ 0, %43 ], [ %spec.select, %36 ], [ %spec.select80, %50 ]
  ret i32 %.0
}